; ModuleID = '5/413.c'
source_filename = "5/413.c"
target datalayout = "e-m:e-p270:32:32-p271:32:32-p272:64:64-i64:64-f80:128-n8:16:32:64-S128"
target triple = "x86_64-pc-linux-gnu"

@.str = private unnamed_addr constant [4 x i8] c"%lf\00", align 1
@.str.1 = private unnamed_addr constant [6 x i8] c"%s %s\00", align 1
@.str.2 = private unnamed_addr constant [6 x i8] c"error\00", align 1
@.str.3 = private unnamed_addr constant [4 x i8] c"yes\00", align 1
@.str.4 = private unnamed_addr constant [3 x i8] c"no\00", align 1

; Function Attrs: noinline nounwind uwtable
define dso_local i32 @main() #0 {
  %1 = alloca i32, align 4
  %2 = alloca i32, align 4
  %3 = alloca i32, align 4
  %4 = alloca double, align 8
  %5 = alloca double, align 8
  %6 = alloca [500 x i8], align 16
  %7 = alloca [500 x i8], align 16
  store i32 0, i32* %1, align 4
  store double 0.000000e+00, double* %5, align 8
  %8 = call i32 (i8*, ...) @__isoc99_scanf(i8* getelementptr inbounds ([4 x i8], [4 x i8]* @.str, i64 0, i64 0), double* %4)
  %9 = getelementptr inbounds [500 x i8], [500 x i8]* %6, i64 0, i64 0
  %10 = getelementptr inbounds [500 x i8], [500 x i8]* %7, i64 0, i64 0
  %11 = call i32 (i8*, ...) @__isoc99_scanf(i8* getelementptr inbounds ([6 x i8], [6 x i8]* @.str.1, i64 0, i64 0), i8* %9, i8* %10)
  %12 = getelementptr inbounds [500 x i8], [500 x i8]* %6, i64 0, i64 0
  %13 = call i64 @strlen(i8* %12) #3
  %14 = getelementptr inbounds [500 x i8], [500 x i8]* %7, i64 0, i64 0
  %15 = call i64 @strlen(i8* %14) #3
  %16 = icmp ne i64 %13, %15
  br i1 %16, label %17, label %19

17:                                               ; preds = %0
  %18 = call i32 (i8*, ...) @printf(i8* getelementptr inbounds ([6 x i8], [6 x i8]* @.str.2, i64 0, i64 0))
  br label %129

19:                                               ; preds = %0
  %20 = getelementptr inbounds [500 x i8], [500 x i8]* %6, i64 0, i64 0
  %21 = call i64 @strlen(i8* %20) #3
  %22 = trunc i64 %21 to i32
  store i32 %22, i32* %3, align 4
  store i32 0, i32* %2, align 4
  br label %23

23:                                               ; preds = %114, %19
  %24 = load i32, i32* %2, align 4
  %25 = sext i32 %24 to i64
  %26 = getelementptr inbounds [500 x i8], [500 x i8]* %6, i64 0, i64 %25
  %27 = load i8, i8* %26, align 1
  %28 = sext i8 %27 to i32
  %29 = icmp ne i32 %28, 0
  br i1 %29, label %30, label %37

30:                                               ; preds = %23
  %31 = load i32, i32* %2, align 4
  %32 = sext i32 %31 to i64
  %33 = getelementptr inbounds [500 x i8], [500 x i8]* %7, i64 0, i64 %32
  %34 = load i8, i8* %33, align 1
  %35 = sext i8 %34 to i32
  %36 = icmp ne i32 %35, 0
  br label %37

37:                                               ; preds = %30, %23
  %38 = phi i1 [ false, %23 ], [ %36, %30 ]
  br i1 %38, label %39, label %117

39:                                               ; preds = %37
  %40 = load i32, i32* %2, align 4
  %41 = sext i32 %40 to i64
  %42 = getelementptr inbounds [500 x i8], [500 x i8]* %6, i64 0, i64 %41
  %43 = load i8, i8* %42, align 1
  %44 = sext i8 %43 to i32
  %45 = icmp eq i32 %44, 65
  br i1 %45, label %67, label %46

46:                                               ; preds = %39
  %47 = load i32, i32* %2, align 4
  %48 = sext i32 %47 to i64
  %49 = getelementptr inbounds [500 x i8], [500 x i8]* %6, i64 0, i64 %48
  %50 = load i8, i8* %49, align 1
  %51 = sext i8 %50 to i32
  %52 = icmp eq i32 %51, 84
  br i1 %52, label %67, label %53

53:                                               ; preds = %46
  %54 = load i32, i32* %2, align 4
  %55 = sext i32 %54 to i64
  %56 = getelementptr inbounds [500 x i8], [500 x i8]* %6, i64 0, i64 %55
  %57 = load i8, i8* %56, align 1
  %58 = sext i8 %57 to i32
  %59 = icmp eq i32 %58, 67
  br i1 %59, label %67, label %60

60:                                               ; preds = %53
  %61 = load i32, i32* %2, align 4
  %62 = sext i32 %61 to i64
  %63 = getelementptr inbounds [500 x i8], [500 x i8]* %6, i64 0, i64 %62
  %64 = load i8, i8* %63, align 1
  %65 = sext i8 %64 to i32
  %66 = icmp eq i32 %65, 71
  br i1 %66, label %67, label %111

67:                                               ; preds = %60, %53, %46, %39
  %68 = load i32, i32* %2, align 4
  %69 = sext i32 %68 to i64
  %70 = getelementptr inbounds [500 x i8], [500 x i8]* %7, i64 0, i64 %69
  %71 = load i8, i8* %70, align 1
  %72 = sext i8 %71 to i32
  %73 = icmp eq i32 %72, 65
  br i1 %73, label %95, label %74

74:                                               ; preds = %67
  %75 = load i32, i32* %2, align 4
  %76 = sext i32 %75 to i64
  %77 = getelementptr inbounds [500 x i8], [500 x i8]* %7, i64 0, i64 %76
  %78 = load i8, i8* %77, align 1
  %79 = sext i8 %78 to i32
  %80 = icmp eq i32 %79, 84
  br i1 %80, label %95, label %81

81:                                               ; preds = %74
  %82 = load i32, i32* %2, align 4
  %83 = sext i32 %82 to i64
  %84 = getelementptr inbounds [500 x i8], [500 x i8]* %7, i64 0, i64 %83
  %85 = load i8, i8* %84, align 1
  %86 = sext i8 %85 to i32
  %87 = icmp eq i32 %86, 67
  br i1 %87, label %95, label %88

88:                                               ; preds = %81
  %89 = load i32, i32* %2, align 4
  %90 = sext i32 %89 to i64
  %91 = getelementptr inbounds [500 x i8], [500 x i8]* %7, i64 0, i64 %90
  %92 = load i8, i8* %91, align 1
  %93 = sext i8 %92 to i32
  %94 = icmp eq i32 %93, 71
  br i1 %94, label %95, label %111

95:                                               ; preds = %88, %81, %74, %67
  %96 = load i32, i32* %2, align 4
  %97 = sext i32 %96 to i64
  %98 = getelementptr inbounds [500 x i8], [500 x i8]* %6, i64 0, i64 %97
  %99 = load i8, i8* %98, align 1
  %100 = sext i8 %99 to i32
  %101 = load i32, i32* %2, align 4
  %102 = sext i32 %101 to i64
  %103 = getelementptr inbounds [500 x i8], [500 x i8]* %7, i64 0, i64 %102
  %104 = load i8, i8* %103, align 1
  %105 = sext i8 %104 to i32
  %106 = icmp eq i32 %100, %105
  br i1 %106, label %107, label %110

107:                                              ; preds = %95
  %108 = load double, double* %5, align 8
  %109 = fadd double %108, 1.000000e+00
  store double %109, double* %5, align 8
  br label %110

110:                                              ; preds = %107, %95
  br label %113

111:                                              ; preds = %88, %60
  %112 = call i32 (i8*, ...) @printf(i8* getelementptr inbounds ([6 x i8], [6 x i8]* @.str.2, i64 0, i64 0))
  store i32 0, i32* %1, align 4
  br label %130

113:                                              ; preds = %110
  br label %114

114:                                              ; preds = %113
  %115 = load i32, i32* %2, align 4
  %116 = add nsw i32 %115, 1
  store i32 %116, i32* %2, align 4
  br label %23

117:                                              ; preds = %37
  %118 = load double, double* %5, align 8
  %119 = load i32, i32* %3, align 4
  %120 = sitofp i32 %119 to double
  %121 = fdiv double %118, %120
  %122 = load double, double* %4, align 8
  %123 = fcmp ogt double %121, %122
  br i1 %123, label %124, label %126

124:                                              ; preds = %117
  %125 = call i32 (i8*, ...) @printf(i8* getelementptr inbounds ([4 x i8], [4 x i8]* @.str.3, i64 0, i64 0))
  br label %128

126:                                              ; preds = %117
  %127 = call i32 (i8*, ...) @printf(i8* getelementptr inbounds ([3 x i8], [3 x i8]* @.str.4, i64 0, i64 0))
  br label %128

128:                                              ; preds = %126, %124
  br label %129

129:                                              ; preds = %128, %17
  store i32 0, i32* %1, align 4
  br label %130

130:                                              ; preds = %129, %111
  %131 = load i32, i32* %1, align 4
  ret i32 %131
}

declare dso_local i32 @__isoc99_scanf(i8*, ...) #1

; Function Attrs: nounwind readonly
declare dso_local i64 @strlen(i8*) #2

declare dso_local i32 @printf(i8*, ...) #1


!llvm.module.flags = !{!0}
!llvm.ident = !{!1}

!0 = !{i32 1, !"wchar_size", i32 4}
!1 = !{!"clang version 10.0.0-4ubuntu1 "}
